target datalayout = "e-m:e-p270:32:32-p271:32:32-p272:64:64-i64:64-i128:128-f80:128-n8:16:32:64-S128"
target triple = "x86_64-pc-linux-gnu"

%struct.enip_request_key = type { i32, i32, i32, i64, i32, %union.anon }
%union.anon = type { %struct.anon.0 }
%struct.anon.0 = type { i32, i16 }

; Function Attrs: nounwind null_pointer_is_valid sspstrong uwtable
define internal i32 @enip_request_hash(ptr noundef %0) #5 {
  %2 = alloca ptr, align 8
  %3 = alloca ptr, align 8
  %4 = alloca i32, align 4
  store ptr %0, ptr %2, align 8
  call void @llvm.lifetime.start.p0(i64 8, ptr %3) #14
  %5 = load ptr, ptr %2, align 8
  store ptr %5, ptr %3, align 8
  call void @llvm.lifetime.start.p0(i64 4, ptr %4) #14
  %6 = load ptr, ptr %3, align 8
  %7 = getelementptr inbounds nuw %struct.enip_request_key, ptr %6, i32 0, i32 4
  %8 = load i32, ptr %7, align 8
  %9 = mul i32 %8, 37
  %10 = load ptr, ptr %3, align 8
  %11 = getelementptr inbounds nuw %struct.enip_request_key, ptr %10, i32 0, i32 0
  %12 = load i32, ptr %11, align 8
  %13 = mul i32 %12, 93
  %14 = add i32 %9, %13
  %15 = load ptr, ptr %3, align 8
  %16 = getelementptr inbounds nuw %struct.enip_request_key, ptr %15, i32 0, i32 2
  %17 = load i32, ptr %16, align 8
  %18 = mul i32 %17, 765
  %19 = add i32 %14, %18
  store i32 %19, ptr %4, align 4
  %20 = load ptr, ptr %3, align 8
  %21 = getelementptr inbounds nuw %struct.enip_request_key, ptr %20, i32 0, i32 2
  %22 = load i32, ptr %21, align 8
  %23 = icmp eq i32 %22, 2
  br i1 %23, label %24, label %32

24:                                               ; preds = %1
  %25 = load ptr, ptr %3, align 8
  %26 = getelementptr inbounds nuw %struct.enip_request_key, ptr %25, i32 0, i32 3
  %27 = load i64, ptr %26, align 8
  %28 = mul i64 %27, 23
  %29 = trunc i64 %28 to i32
  %30 = load i32, ptr %4, align 4
  %31 = add i32 %30, %29
  store i32 %31, ptr %4, align 4
  br label %53

32:                                               ; preds = %1
  %33 = load ptr, ptr %3, align 8
  %34 = getelementptr inbounds nuw %struct.enip_request_key, ptr %33, i32 0, i32 2
  %35 = load i32, ptr %34, align 8
  %36 = icmp eq i32 %35, 1
  br i1 %36, label %37, label %52

37:                                               ; preds = %32
  %38 = load ptr, ptr %3, align 8
  %39 = getelementptr inbounds nuw %struct.enip_request_key, ptr %38, i32 0, i32 5
  %40 = getelementptr inbounds nuw %struct.anon.0, ptr %39, i32 0, i32 0
  %41 = load i32, ptr %40, align 4
  %42 = mul i32 %41, 87
  %43 = load ptr, ptr %3, align 8
  %44 = getelementptr inbounds nuw %struct.enip_request_key, ptr %43, i32 0, i32 5
  %45 = getelementptr inbounds nuw %struct.anon.0, ptr %44, i32 0, i32 1
  %46 = load i16, ptr %45, align 4
  %47 = zext i16 %46 to i32
  %48 = mul i32 %47, 834
  %49 = add i32 %42, %48
  %50 = load i32, ptr %4, align 4
  %51 = add i32 %50, %49
  store i32 %51, ptr %4, align 4
  br label %52

52:                                               ; preds = %37, %32
  br label %53

53:                                               ; preds = %52, %24
  %54 = load i32, ptr %4, align 4
  call void @llvm.lifetime.end.p0(i64 4, ptr %4) #14
  call void @llvm.lifetime.end.p0(i64 8, ptr %3) #14
  ret i32 %54
}