; Function Attrs: mustprogress nofree norecurse nosync nounwind null_pointer_is_valid sspstrong willreturn memory(argmem: read) uwtable
define internal i32 @enip_request_hash(ptr noundef readonly captures(none) %0) #5 {
  %2 = getelementptr inbounds nuw i8, ptr %0, i64 24
  %3 = load i32, ptr %2, align 8
  %4 = mul i32 %3, 37
  %5 = load i32, ptr %0, align 8
  %6 = mul i32 %5, 93
  %7 = add i32 %6, %4
  %8 = getelementptr inbounds nuw i8, ptr %0, i64 8
  %9 = load i32, ptr %8, align 8
  %10 = mul i32 %9, 765
  %11 = add i32 %7, %10
  switch i32 %9, label %28 [
    i32 2, label %12
    i32 1, label %18
  ]

12:                                               ; preds = %1
  %13 = getelementptr inbounds nuw i8, ptr %0, i64 16
  %14 = load i64, ptr %13, align 8
  %15 = trunc i64 %14 to i32
  %16 = mul i32 %15, 23
  %17 = add i32 %16, %11
  br label %28

18:                                               ; preds = %1
  %19 = getelementptr inbounds nuw i8, ptr %0, i64 28
  %20 = load i32, ptr %19, align 4
  %21 = mul i32 %20, 87
  %22 = getelementptr inbounds nuw i8, ptr %0, i64 32
  %23 = load i16, ptr %22, align 4
  %24 = zext i16 %23 to i32
  %25 = mul nuw nsw i32 %24, 834
  %26 = add i32 %21, %11
  %27 = add i32 %26, %25
  br label %28

28:                                               ; preds = %1, %18, %12
  %.0 = phi i32 [ %17, %12 ], [ %27, %18 ], [ %11, %1 ]
  ret i32 %.0
}